; Function Attrs: mustprogress nofree norecurse nosync nounwind willreturn memory(argmem: write) uwtable
define hidden void @_ZN3sat6clause14set_new_offsetEm(ptr nocapture noundef nonnull writeonly align 4 dereferenceable(20) %this, i64 noundef %offset) local_unnamed_addr #7 align 2 {
entry:
  %conv = trunc i64 %offset to i32
  %m_lits = getelementptr inbounds i8, ptr %this, i64 20
  store i32 %conv, ptr %m_lits, align 4
  %shr = lshr i64 %offset, 32
  %conv3 = trunc i64 %shr to i32
  %arrayidx7 = getelementptr inbounds i8, ptr %this, i64 24
  store i32 %conv3, ptr %arrayidx7, align 4
  ret void
}